; ModuleID = 'source-C-CXX/28/1376.c'
source_filename = "source-C-CXX/28/1376.c"
target datalayout = "e-m:e-p270:32:32-p271:32:32-p272:64:64-i64:64-f80:128-n8:16:32:64-S128"
target triple = "x86_64-pc-linux-gnu"

@.str = private unnamed_addr constant [3 x i8] c"%d\00", align 1
@.str.1 = private unnamed_addr constant [7 x i8] c"%.3lf\0A\00", align 1

; Function Attrs: nounwind sspstrong uwtable
define dso_local i32 @main() local_unnamed_addr #0 {
  %1 = alloca i32, align 4
  %2 = bitcast i32* %1 to i8*
  call void @llvm.lifetime.start.p0i8(i64 4, i8* nonnull %2) #5
  %3 = call i32 (i8*, ...) @__isoc99_scanf(i8* getelementptr inbounds ([3 x i8], [3 x i8]* @.str, i64 0, i64 0), i32* nonnull %1)
  %4 = load i32, i32* %1, align 4, !tbaa !5
  %5 = sext i32 %4 to i64
  %6 = shl nsw i64 %5, 2
  %7 = call noalias align 16 i8* @malloc(i64 %6) #5
  %8 = bitcast i8* %7 to i32*
  %9 = icmp sgt i32 %4, 0
  br i1 %9, label %12, label %59

10:                                               ; preds = %12
  %11 = icmp sgt i32 %17, 0
  br i1 %11, label %20, label %59

12:                                               ; preds = %0, %12
  %13 = phi i64 [ %16, %12 ], [ 0, %0 ]
  %14 = getelementptr inbounds i32, i32* %8, i64 %13
  %15 = call i32 (i8*, ...) @__isoc99_scanf(i8* getelementptr inbounds ([3 x i8], [3 x i8]* @.str, i64 0, i64 0), i32* %14)
  %16 = add nuw nsw i64 %13, 1
  %17 = load i32, i32* %1, align 4, !tbaa !5
  %18 = sext i32 %17 to i64
  %19 = icmp slt i64 %16, %18
  br i1 %19, label %12, label %10, !llvm.loop !9

20:                                               ; preds = %10, %52
  %21 = phi i64 [ %55, %52 ], [ 0, %10 ]
  %22 = getelementptr inbounds i32, i32* %8, i64 %21
  %23 = load i32, i32* %22, align 4, !tbaa !5
  %24 = icmp sgt i32 %23, 0
  br i1 %24, label %25, label %52

25:                                               ; preds = %20
  %26 = and i32 %23, 1
  %27 = icmp eq i32 %23, 1
  br i1 %27, label %43, label %28

28:                                               ; preds = %25
  %29 = and i32 %23, -2
  br label %30

30:                                               ; preds = %30, %28
  %31 = phi double [ 0.000000e+00, %28 ], [ %39, %30 ]
  %32 = phi double [ 2.000000e+00, %28 ], [ %40, %30 ]
  %33 = phi double [ 1.000000e+00, %28 ], [ %37, %30 ]
  %34 = phi i32 [ %29, %28 ], [ %41, %30 ]
  %35 = fdiv double %32, %33
  %36 = fadd double %31, %35
  %37 = fadd double %33, %32
  %38 = fdiv double %37, %32
  %39 = fadd double %36, %38
  %40 = fadd double %32, %37
  %41 = add i32 %34, -2
  %42 = icmp eq i32 %41, 0
  br i1 %42, label %43, label %30, !llvm.loop !11

43:                                               ; preds = %30, %25
  %44 = phi double [ undef, %25 ], [ %39, %30 ]
  %45 = phi double [ 0.000000e+00, %25 ], [ %39, %30 ]
  %46 = phi double [ 2.000000e+00, %25 ], [ %40, %30 ]
  %47 = phi double [ 1.000000e+00, %25 ], [ %37, %30 ]
  %48 = icmp eq i32 %26, 0
  br i1 %48, label %52, label %49

49:                                               ; preds = %43
  %50 = fdiv double %46, %47
  %51 = fadd double %45, %50
  br label %52

52:                                               ; preds = %49, %43, %20
  %53 = phi double [ 0.000000e+00, %20 ], [ %44, %43 ], [ %51, %49 ]
  %54 = call i32 (i8*, ...) @printf(i8* nonnull dereferenceable(1) getelementptr inbounds ([7 x i8], [7 x i8]* @.str.1, i64 0, i64 0), double %53)
  %55 = add nuw nsw i64 %21, 1
  %56 = load i32, i32* %1, align 4, !tbaa !5
  %57 = sext i32 %56 to i64
  %58 = icmp slt i64 %55, %57
  br i1 %58, label %20, label %59, !llvm.loop !12

59:                                               ; preds = %52, %0, %10
  call void @free(i8* %7) #5
  call void @llvm.lifetime.end.p0i8(i64 4, i8* nonnull %2) #5
  ret i32 0
}

; Function Attrs: argmemonly mustprogress nofree nosync nounwind willreturn
declare void @llvm.lifetime.start.p0i8(i64 immarg, i8* nocapture) #1

; Function Attrs: nofree nounwind
declare noundef i32 @__isoc99_scanf(i8* nocapture noundef readonly, ...) local_unnamed_addr #2

; Function Attrs: inaccessiblememonly mustprogress nofree nounwind willreturn
declare noalias noundef align 16 i8* @malloc(i64 noundef) local_unnamed_addr #3

; Function Attrs: nofree nounwind
declare noundef i32 @printf(i8* nocapture noundef readonly, ...) local_unnamed_addr #2

; Function Attrs: argmemonly mustprogress nofree nosync nounwind willreturn
declare void @llvm.lifetime.end.p0i8(i64 immarg, i8* nocapture) #1

; Function Attrs: inaccessiblemem_or_argmemonly mustprogress nounwind willreturn
declare void @free(i8* nocapture noundef) local_unnamed_addr #4


!llvm.module.flags = !{!0, !1, !2, !3}
!llvm.ident = !{!4}

!0 = !{i32 1, !"wchar_size", i32 4}
!1 = !{i32 7, !"PIC Level", i32 2}
!2 = !{i32 7, !"PIE Level", i32 2}
!3 = !{i32 7, !"uwtable", i32 1}
!4 = !{!"clang version 13.0.0"}
!5 = !{!6, !6, i64 0}
!6 = !{!"int", !7, i64 0}
!7 = !{!"omnipotent char", !8, i64 0}
!8 = !{!"Simple C/C++ TBAA"}
!9 = distinct !{!9, !10}
!10 = !{!"llvm.loop.mustprogress"}
!11 = distinct !{!11, !10}
!12 = distinct !{!12, !10}
